; ModuleID = '14/1303.c'
source_filename = "14/1303.c"
target datalayout = "e-m:e-p270:32:32-p271:32:32-p272:64:64-i64:64-f80:128-n8:16:32:64-S128"
target triple = "x86_64-pc-linux-gnu"

%struct.student = type { i32, i32, i32, i32, %struct.student* }

@.str = private unnamed_addr constant [9 x i8] c"%d %d %d\00", align 1
@.str.1 = private unnamed_addr constant [3 x i8] c"%d\00", align 1
@.str.2 = private unnamed_addr constant [7 x i8] c"%d %d\0A\00", align 1

; Function Attrs: noinline nounwind uwtable
define dso_local %struct.student* @creat(i32 %0) #0 {
  %2 = alloca i32, align 4
  %3 = alloca i32, align 4
  %4 = alloca %struct.student*, align 8
  %5 = alloca %struct.student*, align 8
  %6 = alloca %struct.student*, align 8
  store i32 %0, i32* %2, align 4
  %7 = call noalias i8* @malloc(i64 24) #3
  %8 = bitcast i8* %7 to %struct.student*
  store %struct.student* %8, %struct.student** %5, align 8
  %9 = load %struct.student*, %struct.student** %5, align 8
  %10 = getelementptr inbounds %struct.student, %struct.student* %9, i32 0, i32 0
  %11 = load %struct.student*, %struct.student** %5, align 8
  %12 = getelementptr inbounds %struct.student, %struct.student* %11, i32 0, i32 1
  %13 = load %struct.student*, %struct.student** %5, align 8
  %14 = getelementptr inbounds %struct.student, %struct.student* %13, i32 0, i32 2
  %15 = call i32 (i8*, ...) @__isoc99_scanf(i8* getelementptr inbounds ([9 x i8], [9 x i8]* @.str, i64 0, i64 0), i32* %10, i32* %12, i32* %14)
  %16 = load %struct.student*, %struct.student** %5, align 8
  %17 = getelementptr inbounds %struct.student, %struct.student* %16, i32 0, i32 1
  %18 = load i32, i32* %17, align 4
  %19 = load %struct.student*, %struct.student** %5, align 8
  %20 = getelementptr inbounds %struct.student, %struct.student* %19, i32 0, i32 2
  %21 = load i32, i32* %20, align 8
  %22 = add nsw i32 %18, %21
  %23 = load %struct.student*, %struct.student** %5, align 8
  %24 = getelementptr inbounds %struct.student, %struct.student* %23, i32 0, i32 3
  store i32 %22, i32* %24, align 4
  %25 = load %struct.student*, %struct.student** %5, align 8
  store %struct.student* %25, %struct.student** %4, align 8
  %26 = load %struct.student*, %struct.student** %5, align 8
  store %struct.student* %26, %struct.student** %6, align 8
  store i32 1, i32* %3, align 4
  br label %27

27:                                               ; preds = %54, %1
  %28 = load i32, i32* %3, align 4
  %29 = load i32, i32* %2, align 4
  %30 = icmp slt i32 %28, %29
  br i1 %30, label %31, label %57

31:                                               ; preds = %27
  %32 = call noalias i8* @malloc(i64 24) #3
  %33 = bitcast i8* %32 to %struct.student*
  store %struct.student* %33, %struct.student** %5, align 8
  %34 = load %struct.student*, %struct.student** %5, align 8
  %35 = getelementptr inbounds %struct.student, %struct.student* %34, i32 0, i32 0
  %36 = load %struct.student*, %struct.student** %5, align 8
  %37 = getelementptr inbounds %struct.student, %struct.student* %36, i32 0, i32 1
  %38 = load %struct.student*, %struct.student** %5, align 8
  %39 = getelementptr inbounds %struct.student, %struct.student* %38, i32 0, i32 2
  %40 = call i32 (i8*, ...) @__isoc99_scanf(i8* getelementptr inbounds ([9 x i8], [9 x i8]* @.str, i64 0, i64 0), i32* %35, i32* %37, i32* %39)
  %41 = load %struct.student*, %struct.student** %5, align 8
  %42 = getelementptr inbounds %struct.student, %struct.student* %41, i32 0, i32 1
  %43 = load i32, i32* %42, align 4
  %44 = load %struct.student*, %struct.student** %5, align 8
  %45 = getelementptr inbounds %struct.student, %struct.student* %44, i32 0, i32 2
  %46 = load i32, i32* %45, align 8
  %47 = add nsw i32 %43, %46
  %48 = load %struct.student*, %struct.student** %5, align 8
  %49 = getelementptr inbounds %struct.student, %struct.student* %48, i32 0, i32 3
  store i32 %47, i32* %49, align 4
  %50 = load %struct.student*, %struct.student** %5, align 8
  %51 = load %struct.student*, %struct.student** %6, align 8
  %52 = getelementptr inbounds %struct.student, %struct.student* %51, i32 0, i32 4
  store %struct.student* %50, %struct.student** %52, align 8
  %53 = load %struct.student*, %struct.student** %5, align 8
  store %struct.student* %53, %struct.student** %6, align 8
  br label %54

54:                                               ; preds = %31
  %55 = load i32, i32* %3, align 4
  %56 = add nsw i32 %55, 1
  store i32 %56, i32* %3, align 4
  br label %27

57:                                               ; preds = %27
  %58 = load %struct.student*, %struct.student** %6, align 8
  %59 = getelementptr inbounds %struct.student, %struct.student* %58, i32 0, i32 4
  store %struct.student* null, %struct.student** %59, align 8
  %60 = load %struct.student*, %struct.student** %4, align 8
  ret %struct.student* %60
}

; Function Attrs: nounwind
declare dso_local noalias i8* @malloc(i64) #1

declare dso_local i32 @__isoc99_scanf(i8*, ...) #2

; Function Attrs: noinline nounwind uwtable
define dso_local void @main() #0 {
  %1 = alloca %struct.student*, align 8
  %2 = alloca %struct.student*, align 8
  %3 = alloca %struct.student*, align 8
  %4 = alloca %struct.student*, align 8
  %5 = alloca %struct.student*, align 8
  %6 = alloca i32, align 4
  %7 = alloca i32, align 4
  %8 = call i32 (i8*, ...) @__isoc99_scanf(i8* getelementptr inbounds ([3 x i8], [3 x i8]* @.str.1, i64 0, i64 0), i32* %6)
  %9 = load i32, i32* %6, align 4
  %10 = call %struct.student* @creat(i32 %9)
  store %struct.student* %10, %struct.student** %1, align 8
  %11 = load %struct.student*, %struct.student** %1, align 8
  store %struct.student* %11, %struct.student** %2, align 8
  store i32 0, i32* %7, align 4
  br label %12

12:                                               ; preds = %26, %0
  %13 = load %struct.student*, %struct.student** %2, align 8
  %14 = icmp ne %struct.student* %13, null
  br i1 %14, label %15, label %30

15:                                               ; preds = %12
  %16 = load %struct.student*, %struct.student** %2, align 8
  %17 = getelementptr inbounds %struct.student, %struct.student* %16, i32 0, i32 3
  %18 = load i32, i32* %17, align 4
  %19 = load i32, i32* %7, align 4
  %20 = icmp sgt i32 %18, %19
  br i1 %20, label %21, label %26

21:                                               ; preds = %15
  %22 = load %struct.student*, %struct.student** %2, align 8
  %23 = getelementptr inbounds %struct.student, %struct.student* %22, i32 0, i32 3
  %24 = load i32, i32* %23, align 4
  store i32 %24, i32* %7, align 4
  %25 = load %struct.student*, %struct.student** %2, align 8
  store %struct.student* %25, %struct.student** %3, align 8
  br label %26

26:                                               ; preds = %21, %15
  %27 = load %struct.student*, %struct.student** %2, align 8
  %28 = getelementptr inbounds %struct.student, %struct.student* %27, i32 0, i32 4
  %29 = load %struct.student*, %struct.student** %28, align 8
  store %struct.student* %29, %struct.student** %2, align 8
  br label %12

30:                                               ; preds = %12
  %31 = load %struct.student*, %struct.student** %3, align 8
  %32 = getelementptr inbounds %struct.student, %struct.student* %31, i32 0, i32 0
  %33 = load i32, i32* %32, align 8
  %34 = load %struct.student*, %struct.student** %3, align 8
  %35 = getelementptr inbounds %struct.student, %struct.student* %34, i32 0, i32 3
  %36 = load i32, i32* %35, align 4
  %37 = call i32 (i8*, ...) @printf(i8* getelementptr inbounds ([7 x i8], [7 x i8]* @.str.2, i64 0, i64 0), i32 %33, i32 %36)
  %38 = load %struct.student*, %struct.student** %1, align 8
  store %struct.student* %38, %struct.student** %2, align 8
  store i32 0, i32* %7, align 4
  br label %39

39:                                               ; preds = %57, %30
  %40 = load %struct.student*, %struct.student** %2, align 8
  %41 = icmp ne %struct.student* %40, null
  br i1 %41, label %42, label %61

42:                                               ; preds = %39
  %43 = load %struct.student*, %struct.student** %2, align 8
  %44 = getelementptr inbounds %struct.student, %struct.student* %43, i32 0, i32 3
  %45 = load i32, i32* %44, align 4
  %46 = load i32, i32* %7, align 4
  %47 = icmp sgt i32 %45, %46
  br i1 %47, label %48, label %57

48:                                               ; preds = %42
  %49 = load %struct.student*, %struct.student** %2, align 8
  %50 = load %struct.student*, %struct.student** %3, align 8
  %51 = icmp ne %struct.student* %49, %50
  br i1 %51, label %52, label %57

52:                                               ; preds = %48
  %53 = load %struct.student*, %struct.student** %2, align 8
  %54 = getelementptr inbounds %struct.student, %struct.student* %53, i32 0, i32 3
  %55 = load i32, i32* %54, align 4
  store i32 %55, i32* %7, align 4
  %56 = load %struct.student*, %struct.student** %2, align 8
  store %struct.student* %56, %struct.student** %4, align 8
  br label %57

57:                                               ; preds = %52, %48, %42
  %58 = load %struct.student*, %struct.student** %2, align 8
  %59 = getelementptr inbounds %struct.student, %struct.student* %58, i32 0, i32 4
  %60 = load %struct.student*, %struct.student** %59, align 8
  store %struct.student* %60, %struct.student** %2, align 8
  br label %39

61:                                               ; preds = %39
  %62 = load %struct.student*, %struct.student** %4, align 8
  %63 = getelementptr inbounds %struct.student, %struct.student* %62, i32 0, i32 0
  %64 = load i32, i32* %63, align 8
  %65 = load %struct.student*, %struct.student** %4, align 8
  %66 = getelementptr inbounds %struct.student, %struct.student* %65, i32 0, i32 3
  %67 = load i32, i32* %66, align 4
  %68 = call i32 (i8*, ...) @printf(i8* getelementptr inbounds ([7 x i8], [7 x i8]* @.str.2, i64 0, i64 0), i32 %64, i32 %67)
  %69 = load %struct.student*, %struct.student** %1, align 8
  store %struct.student* %69, %struct.student** %2, align 8
  store i32 0, i32* %7, align 4
  br label %70

70:                                               ; preds = %92, %61
  %71 = load %struct.student*, %struct.student** %2, align 8
  %72 = icmp ne %struct.student* %71, null
  br i1 %72, label %73, label %96

73:                                               ; preds = %70
  %74 = load %struct.student*, %struct.student** %2, align 8
  %75 = getelementptr inbounds %struct.student, %struct.student* %74, i32 0, i32 3
  %76 = load i32, i32* %75, align 4
  %77 = load i32, i32* %7, align 4
  %78 = icmp sgt i32 %76, %77
  br i1 %78, label %79, label %92

79:                                               ; preds = %73
  %80 = load %struct.student*, %struct.student** %2, align 8
  %81 = load %struct.student*, %struct.student** %3, align 8
  %82 = icmp ne %struct.student* %80, %81
  br i1 %82, label %83, label %92

83:                                               ; preds = %79
  %84 = load %struct.student*, %struct.student** %2, align 8
  %85 = load %struct.student*, %struct.student** %4, align 8
  %86 = icmp ne %struct.student* %84, %85
  br i1 %86, label %87, label %92

87:                                               ; preds = %83
  %88 = load %struct.student*, %struct.student** %2, align 8
  %89 = getelementptr inbounds %struct.student, %struct.student* %88, i32 0, i32 3
  %90 = load i32, i32* %89, align 4
  store i32 %90, i32* %7, align 4
  %91 = load %struct.student*, %struct.student** %2, align 8
  store %struct.student* %91, %struct.student** %5, align 8
  br label %92

92:                                               ; preds = %87, %83, %79, %73
  %93 = load %struct.student*, %struct.student** %2, align 8
  %94 = getelementptr inbounds %struct.student, %struct.student* %93, i32 0, i32 4
  %95 = load %struct.student*, %struct.student** %94, align 8
  store %struct.student* %95, %struct.student** %2, align 8
  br label %70

96:                                               ; preds = %70
  %97 = load %struct.student*, %struct.student** %5, align 8
  %98 = getelementptr inbounds %struct.student, %struct.student* %97, i32 0, i32 0
  %99 = load i32, i32* %98, align 8
  %100 = load %struct.student*, %struct.student** %5, align 8
  %101 = getelementptr inbounds %struct.student, %struct.student* %100, i32 0, i32 3
  %102 = load i32, i32* %101, align 4
  %103 = call i32 (i8*, ...) @printf(i8* getelementptr inbounds ([7 x i8], [7 x i8]* @.str.2, i64 0, i64 0), i32 %99, i32 %102)
  ret void
}

declare dso_local i32 @printf(i8*, ...) #2


!llvm.module.flags = !{!0}
!llvm.ident = !{!1}

!0 = !{i32 1, !"wchar_size", i32 4}
!1 = !{!"clang version 10.0.0-4ubuntu1 "}
